target datalayout = "e-m:e-p270:32:32-p271:32:32-p272:64:64-i64:64-i128:128-f80:128-n8:16:32:64-S128"
target triple = "x86_64-pc-linux-gnu"

%struct.Curl_hash = type { ptr, ptr, ptr, ptr, i64, i64 }
%struct.Curl_llist = type { ptr, ptr, ptr, i64 }
%struct.Curl_hash_element = type { %struct.Curl_llist_node, ptr, ptr, i64, [1 x i8] }
%struct.Curl_llist_node = type { ptr, ptr, ptr, ptr }

; Function Attrs: nounwind uwtable
define hidden ptr @Curl_hash_pick(ptr noundef %0, ptr noundef %1, i64 noundef %2) #0 {
  %4 = alloca ptr, align 8
  %5 = alloca ptr, align 8
  %6 = alloca ptr, align 8
  %7 = alloca i64, align 8
  %8 = alloca ptr, align 8
  %9 = alloca ptr, align 8
  %10 = alloca ptr, align 8
  %11 = alloca i32, align 4
  store ptr %0, ptr %5, align 8, !tbaa !3
  store ptr %1, ptr %6, align 8, !tbaa !10
  store i64 %2, ptr %7, align 8, !tbaa !8
  br label %12

12:                                               ; preds = %3
  br label %13

13:                                               ; preds = %12
  br label %14

14:                                               ; preds = %13
  br label %15

15:                                               ; preds = %14
  %16 = load ptr, ptr %5, align 8, !tbaa !3
  %17 = getelementptr inbounds nuw %struct.Curl_hash, ptr %16, i32 0, i32 0
  %18 = load ptr, ptr %17, align 8, !tbaa !11
  %19 = icmp ne ptr %18, null
  br i1 %19, label %20, label %73

20:                                               ; preds = %15
  call void @llvm.lifetime.start.p0(i64 8, ptr %8) #5
  call void @llvm.lifetime.start.p0(i64 8, ptr %9) #5
  br label %21

21:                                               ; preds = %20
  br label %22

22:                                               ; preds = %21
  br label %23

23:                                               ; preds = %22
  %24 = load ptr, ptr %5, align 8, !tbaa !3
  %25 = getelementptr inbounds nuw %struct.Curl_hash, ptr %24, i32 0, i32 0
  %26 = load ptr, ptr %25, align 8, !tbaa !11
  %27 = load ptr, ptr %5, align 8, !tbaa !3
  %28 = getelementptr inbounds nuw %struct.Curl_hash, ptr %27, i32 0, i32 1
  %29 = load ptr, ptr %28, align 8, !tbaa !14
  %30 = load ptr, ptr %6, align 8, !tbaa !10
  %31 = load i64, ptr %7, align 8, !tbaa !8
  %32 = load ptr, ptr %5, align 8, !tbaa !3
  %33 = getelementptr inbounds nuw %struct.Curl_hash, ptr %32, i32 0, i32 4
  %34 = load i64, ptr %33, align 8, !tbaa !18
  %35 = call i64 %29(ptr noundef %30, i64 noundef %31, i64 noundef %34)
  %36 = getelementptr inbounds nuw %struct.Curl_llist, ptr %26, i64 %35
  store ptr %36, ptr %9, align 8, !tbaa !21
  %37 = load ptr, ptr %9, align 8, !tbaa !21
  %38 = call ptr @Curl_llist_head(ptr noundef %37)
  store ptr %38, ptr %8, align 8, !tbaa !22
  br label %39

39:                                               ; preds = %66, %23
  %40 = load ptr, ptr %8, align 8, !tbaa !22
  %41 = icmp ne ptr %40, null
  br i1 %41, label %42, label %69

42:                                               ; preds = %39
  call void @llvm.lifetime.start.p0(i64 8, ptr %10) #5
  %43 = load ptr, ptr %8, align 8, !tbaa !22
  %44 = call ptr @Curl_node_elem(ptr noundef %43)
  store ptr %44, ptr %10, align 8, !tbaa !24
  %45 = load ptr, ptr %5, align 8, !tbaa !3
  %46 = getelementptr inbounds nuw %struct.Curl_hash, ptr %45, i32 0, i32 2
  %47 = load ptr, ptr %46, align 8, !tbaa !15
  %48 = load ptr, ptr %10, align 8, !tbaa !24
  %49 = getelementptr inbounds nuw %struct.Curl_hash_element, ptr %48, i32 0, i32 4
  %50 = getelementptr inbounds [1 x i8], ptr %49, i64 0, i64 0
  %51 = load ptr, ptr %10, align 8, !tbaa !24
  %52 = getelementptr inbounds nuw %struct.Curl_hash_element, ptr %51, i32 0, i32 3
  %53 = load i64, ptr %52, align 8, !tbaa !26
  %54 = load ptr, ptr %6, align 8, !tbaa !10
  %55 = load i64, ptr %7, align 8, !tbaa !8
  %56 = call i64 %47(ptr noundef %50, i64 noundef %53, ptr noundef %54, i64 noundef %55)
  %57 = icmp ne i64 %56, 0
  br i1 %57, label %58, label %62

58:                                               ; preds = %42
  %59 = load ptr, ptr %10, align 8, !tbaa !24
  %60 = getelementptr inbounds nuw %struct.Curl_hash_element, ptr %59, i32 0, i32 1
  %61 = load ptr, ptr %60, align 8, !tbaa !30
  store ptr %61, ptr %4, align 8
  store i32 1, ptr %11, align 4
  br label %63

62:                                               ; preds = %42
  store i32 0, ptr %11, align 4
  br label %63

63:                                               ; preds = %62, %58
  call void @llvm.lifetime.end.p0(i64 8, ptr %10) #5
  %64 = load i32, ptr %11, align 4
  switch i32 %64, label %70 [
    i32 0, label %65
  ]

65:                                               ; preds = %63
  br label %66

66:                                               ; preds = %65
  %67 = load ptr, ptr %8, align 8, !tbaa !22
  %68 = call ptr @Curl_node_next(ptr noundef %67)
  store ptr %68, ptr %8, align 8, !tbaa !22
  br label %39, !llvm.loop !33

69:                                               ; preds = %39
  store i32 0, ptr %11, align 4
  br label %70

70:                                               ; preds = %69, %63
  call void @llvm.lifetime.end.p0(i64 8, ptr %9) #5
  call void @llvm.lifetime.end.p0(i64 8, ptr %8) #5
  %71 = load i32, ptr %11, align 4
  switch i32 %71, label %76 [
    i32 0, label %72
    i32 1, label %74
  ]

72:                                               ; preds = %70
  br label %73

73:                                               ; preds = %72, %15
  store ptr null, ptr %4, align 8
  br label %74

74:                                               ; preds = %73, %70
  %75 = load ptr, ptr %4, align 8
  ret ptr %75

76:                                               ; preds = %70
  unreachable
}