; Function Attrs: nounwind uwtable
define hidden ptr @Curl_hash_pick(ptr noundef readonly captures(none) %0, ptr noundef %1, i64 noundef %2) local_unnamed_addr #1 {
  %4 = load ptr, ptr %0, align 8, !tbaa !3
  %.not = icmp eq ptr %4, null
  br i1 %.not, label %.thread26, label %5

5:                                                ; preds = %3
  %6 = getelementptr inbounds nuw i8, ptr %0, i64 8
  %7 = load ptr, ptr %6, align 8, !tbaa !10
  %8 = getelementptr inbounds nuw i8, ptr %0, i64 32
  %9 = load i64, ptr %8, align 8, !tbaa !14
  %10 = tail call i64 %7(ptr noundef %1, i64 noundef %2, i64 noundef %9) #9
  %11 = getelementptr inbounds nuw %struct.Curl_llist, ptr %4, i64 %10
  %12 = tail call ptr @Curl_llist_head(ptr noundef nonnull %11) #9
  %.not22.not29 = icmp eq ptr %12, null
  br i1 %.not22.not29, label %.thread26, label %.lr.ph

.lr.ph:                                           ; preds = %5
  %13 = getelementptr inbounds nuw i8, ptr %0, i64 16
  br label %14

14:                                               ; preds = %.lr.ph, %21
  %.02030 = phi ptr [ %12, %.lr.ph ], [ %22, %21 ]
  %15 = tail call ptr @Curl_node_elem(ptr noundef nonnull %.02030) #9
  %16 = load ptr, ptr %13, align 8, !tbaa !11
  %17 = getelementptr inbounds nuw i8, ptr %15, i64 56
  %18 = getelementptr inbounds nuw i8, ptr %15, i64 48
  %19 = load i64, ptr %18, align 8, !tbaa !18
  %20 = tail call i64 %16(ptr noundef nonnull %17, i64 noundef %19, ptr noundef %1, i64 noundef %2) #9
  %.not23 = icmp eq i64 %20, 0
  br i1 %.not23, label %21, label %23

21:                                               ; preds = %14
  %22 = tail call ptr @Curl_node_next(ptr noundef nonnull %.02030) #9
  %.not22.not = icmp eq ptr %22, null
  br i1 %.not22.not, label %.thread26, label %14, !llvm.loop !26

23:                                               ; preds = %14
  %24 = getelementptr inbounds nuw i8, ptr %15, i64 32
  %25 = load ptr, ptr %24, align 8, !tbaa !23
  br label %.thread26

.thread26:                                        ; preds = %21, %5, %3, %23
  %.3 = phi ptr [ %25, %23 ], [ null, %3 ], [ null, %5 ], [ null, %21 ]
  ret ptr %.3
}